target datalayout = "e-m:e-p270:32:32-p271:32:32-p272:64:64-i64:64-i128:128-f80:128-n8:16:32:64-S128"
target triple = "x86_64-pc-linux-gnu"

%struct._zval_struct = type { %union._zend_value, %union.anon.3, %union.anon.6 }
%union._zend_value = type { i64 }
%union.anon.3 = type { i32 }
%union.anon.6 = type { i32 }
%struct._php_stream = type { ptr, ptr, %struct._php_stream_filter_chain, %struct._php_stream_filter_chain, ptr, ptr, %struct._zval_struct, i16, [16 x i8], i32, ptr, ptr, ptr, ptr, i64, ptr, i64, i64, i64, i64, ptr }
%struct._php_stream_filter_chain = type { ptr, ptr, ptr }

@.str.28 = private unnamed_addr constant [2 x i8] c"|\00", align 1
@.str.29 = private unnamed_addr constant [29 x i8] c"Unable to create filter (%s)\00", align 1

; Function Attrs: nounwind uwtable
define internal void @php_stream_apply_filter_list(ptr noundef %0, ptr noundef %1, i32 noundef %2, i32 noundef %3) #0 {
  %5 = alloca ptr, align 8
  %6 = alloca ptr, align 8
  %7 = alloca i32, align 4
  %8 = alloca i32, align 4
  %9 = alloca ptr, align 8
  %10 = alloca ptr, align 8
  %11 = alloca ptr, align 8
  store ptr %0, ptr %5, align 8
  store ptr %1, ptr %6, align 8
  store i32 %2, ptr %7, align 4
  store i32 %3, ptr %8, align 4
  store ptr null, ptr %10, align 8
  %12 = load ptr, ptr %6, align 8
  %13 = call ptr @strtok_r(ptr noundef %12, ptr noundef @.str.28, ptr noundef %10) #8
  store ptr %13, ptr %9, align 8
  br label %14

14:                                               ; preds = %59, %4
  %15 = load ptr, ptr %9, align 8
  %16 = icmp ne ptr %15, null
  br i1 %16, label %17, label %61

17:                                               ; preds = %14
  %18 = load ptr, ptr %9, align 8
  %19 = load ptr, ptr %9, align 8
  %20 = call i64 @strlen(ptr noundef %19) #7
  %21 = call i64 @php_url_decode(ptr noundef %18, i64 noundef %20)
  %22 = load i32, ptr %7, align 4
  %23 = icmp ne i32 %22, 0
  br i1 %23, label %24, label %40

24:                                               ; preds = %17
  %25 = load ptr, ptr %9, align 8
  %26 = load ptr, ptr %5, align 8
  %27 = getelementptr inbounds %struct._php_stream, ptr %26, i32 0, i32 7
  %28 = load i16, ptr %27, align 8
  %29 = and i16 %28, 1
  %30 = trunc i16 %29 to i8
  %31 = call ptr @php_stream_filter_create(ptr noundef %25, ptr noundef null, i8 noundef zeroext %30)
  store ptr %31, ptr %11, align 8
  %32 = icmp ne ptr %31, null
  br i1 %32, label %33, label %37

33:                                               ; preds = %24
  %34 = load ptr, ptr %5, align 8
  %35 = getelementptr inbounds %struct._php_stream, ptr %34, i32 0, i32 2
  %36 = load ptr, ptr %11, align 8
  call void @_php_stream_filter_append(ptr noundef %35, ptr noundef %36)
  br label %39

37:                                               ; preds = %24
  %38 = load ptr, ptr %9, align 8
  call void (ptr, i32, ptr, ...) @php_error_docref(ptr noundef null, i32 noundef 2, ptr noundef @.str.29, ptr noundef %38)
  br label %39

39:                                               ; preds = %37, %33
  br label %40

40:                                               ; preds = %39, %17
  %41 = load i32, ptr %8, align 4
  %42 = icmp ne i32 %41, 0
  br i1 %42, label %43, label %59

43:                                               ; preds = %40
  %44 = load ptr, ptr %9, align 8
  %45 = load ptr, ptr %5, align 8
  %46 = getelementptr inbounds %struct._php_stream, ptr %45, i32 0, i32 7
  %47 = load i16, ptr %46, align 8
  %48 = and i16 %47, 1
  %49 = trunc i16 %48 to i8
  %50 = call ptr @php_stream_filter_create(ptr noundef %44, ptr noundef null, i8 noundef zeroext %49)
  store ptr %50, ptr %11, align 8
  %51 = icmp ne ptr %50, null
  br i1 %51, label %52, label %56

52:                                               ; preds = %43
  %53 = load ptr, ptr %5, align 8
  %54 = getelementptr inbounds %struct._php_stream, ptr %53, i32 0, i32 3
  %55 = load ptr, ptr %11, align 8
  call void @_php_stream_filter_append(ptr noundef %54, ptr noundef %55)
  br label %58

56:                                               ; preds = %43
  %57 = load ptr, ptr %9, align 8
  call void (ptr, i32, ptr, ...) @php_error_docref(ptr noundef null, i32 noundef 2, ptr noundef @.str.29, ptr noundef %57)
  br label %58

58:                                               ; preds = %56, %52
  br label %59

59:                                               ; preds = %58, %40
  %60 = call ptr @strtok_r(ptr noundef null, ptr noundef @.str.28, ptr noundef %10) #8
  store ptr %60, ptr %9, align 8
  br label %14

61:                                               ; preds = %14
  ret void
}