; Function Attrs: nounwind uwtable
define internal fastcc void @php_stream_apply_filter_list(ptr noundef %0, ptr noundef %1, i32 noundef %2, i32 noundef %3) unnamed_addr #0 {
  %5 = alloca ptr, align 8
  store ptr null, ptr %5, align 8
  %6 = call ptr @strtok_r(ptr noundef %1, ptr noundef nonnull @.str.28, ptr noundef nonnull %5) #12
  %.not21 = icmp eq ptr %6, null
  br i1 %.not21, label %._crit_edge, label %.lr.ph

.lr.ph:                                           ; preds = %4
  %.not17 = icmp eq i32 %2, 0
  %7 = getelementptr inbounds i8, ptr %0, i64 96
  %8 = getelementptr inbounds i8, ptr %0, i64 16
  %.not19 = icmp eq i32 %3, 0
  %9 = getelementptr inbounds i8, ptr %0, i64 40
  br i1 %.not17, label %.lr.ph.split.us, label %.lr.ph.split

.lr.ph.split.us:                                  ; preds = %.lr.ph
  br i1 %.not19, label %.lr.ph.split.us.split.us, label %.lr.ph.split.us.split

.lr.ph.split.us.split.us:                         ; preds = %.lr.ph.split.us, %.lr.ph.split.us.split.us
  %.022.us.us = phi ptr [ %12, %.lr.ph.split.us.split.us ], [ %6, %.lr.ph.split.us ]
  %10 = call i64 @strlen(ptr noundef nonnull dereferenceable(1) %.022.us.us) #13
  %11 = call i64 @php_url_decode(ptr noundef nonnull %.022.us.us, i64 noundef %10) #12
  %12 = call ptr @strtok_r(ptr noundef null, ptr noundef nonnull @.str.28, ptr noundef nonnull %5) #12
  %.not.us.us = icmp eq ptr %12, null
  br i1 %.not.us.us, label %._crit_edge, label %.lr.ph.split.us.split.us

.lr.ph.split.us.split:                            ; preds = %.lr.ph.split.us, %21
  %.022.us = phi ptr [ %22, %21 ], [ %6, %.lr.ph.split.us ]
  %13 = call i64 @strlen(ptr noundef nonnull dereferenceable(1) %.022.us) #13
  %14 = call i64 @php_url_decode(ptr noundef nonnull %.022.us, i64 noundef %13) #12
  %15 = load i16, ptr %7, align 8
  %16 = trunc i16 %15 to i8
  %17 = and i8 %16, 1
  %18 = call ptr @php_stream_filter_create(ptr noundef nonnull %.022.us, ptr noundef null, i8 noundef zeroext %17) #12
  %.not20.us = icmp eq ptr %18, null
  br i1 %.not20.us, label %20, label %19

19:                                               ; preds = %.lr.ph.split.us.split
  call void @_php_stream_filter_append(ptr noundef nonnull %9, ptr noundef nonnull %18) #12
  br label %21

20:                                               ; preds = %.lr.ph.split.us.split
  call void (ptr, i32, ptr, ...) @php_error_docref(ptr noundef null, i32 noundef 2, ptr noundef nonnull @.str.29, ptr noundef nonnull %.022.us) #12
  br label %21

21:                                               ; preds = %20, %19
  %22 = call ptr @strtok_r(ptr noundef null, ptr noundef nonnull @.str.28, ptr noundef nonnull %5) #12
  %.not.us = icmp eq ptr %22, null
  br i1 %.not.us, label %._crit_edge, label %.lr.ph.split.us.split

.lr.ph.split:                                     ; preds = %.lr.ph
  br i1 %.not19, label %.lr.ph.split.split.us, label %.lr.ph.split.split

.lr.ph.split.split.us:                            ; preds = %.lr.ph.split, %31
  %.022.us23 = phi ptr [ %32, %31 ], [ %6, %.lr.ph.split ]
  %23 = call i64 @strlen(ptr noundef nonnull dereferenceable(1) %.022.us23) #13
  %24 = call i64 @php_url_decode(ptr noundef nonnull %.022.us23, i64 noundef %23) #12
  %25 = load i16, ptr %7, align 8
  %26 = trunc i16 %25 to i8
  %27 = and i8 %26, 1
  %28 = call ptr @php_stream_filter_create(ptr noundef nonnull %.022.us23, ptr noundef null, i8 noundef zeroext %27) #12
  %.not18.us = icmp eq ptr %28, null
  br i1 %.not18.us, label %30, label %29

29:                                               ; preds = %.lr.ph.split.split.us
  call void @_php_stream_filter_append(ptr noundef nonnull %8, ptr noundef nonnull %28) #12
  br label %31

30:                                               ; preds = %.lr.ph.split.split.us
  call void (ptr, i32, ptr, ...) @php_error_docref(ptr noundef null, i32 noundef 2, ptr noundef nonnull @.str.29, ptr noundef nonnull %.022.us23) #12
  br label %31

31:                                               ; preds = %30, %29
  %32 = call ptr @strtok_r(ptr noundef null, ptr noundef nonnull @.str.28, ptr noundef nonnull %5) #12
  %.not.us24 = icmp eq ptr %32, null
  br i1 %.not.us24, label %._crit_edge, label %.lr.ph.split.split.us

.lr.ph.split.split:                               ; preds = %.lr.ph.split, %48
  %.022 = phi ptr [ %49, %48 ], [ %6, %.lr.ph.split ]
  %33 = call i64 @strlen(ptr noundef nonnull dereferenceable(1) %.022) #13
  %34 = call i64 @php_url_decode(ptr noundef nonnull %.022, i64 noundef %33) #12
  %35 = load i16, ptr %7, align 8
  %36 = trunc i16 %35 to i8
  %37 = and i8 %36, 1
  %38 = call ptr @php_stream_filter_create(ptr noundef nonnull %.022, ptr noundef null, i8 noundef zeroext %37) #12
  %.not18 = icmp eq ptr %38, null
  br i1 %.not18, label %40, label %39

39:                                               ; preds = %.lr.ph.split.split
  call void @_php_stream_filter_append(ptr noundef nonnull %8, ptr noundef nonnull %38) #12
  br label %41

40:                                               ; preds = %.lr.ph.split.split
  call void (ptr, i32, ptr, ...) @php_error_docref(ptr noundef null, i32 noundef 2, ptr noundef nonnull @.str.29, ptr noundef nonnull %.022) #12
  br label %41

41:                                               ; preds = %39, %40
  %42 = load i16, ptr %7, align 8
  %43 = trunc i16 %42 to i8
  %44 = and i8 %43, 1
  %45 = call ptr @php_stream_filter_create(ptr noundef nonnull %.022, ptr noundef null, i8 noundef zeroext %44) #12
  %.not20 = icmp eq ptr %45, null
  br i1 %.not20, label %47, label %46

46:                                               ; preds = %41
  call void @_php_stream_filter_append(ptr noundef nonnull %9, ptr noundef nonnull %45) #12
  br label %48

47:                                               ; preds = %41
  call void (ptr, i32, ptr, ...) @php_error_docref(ptr noundef null, i32 noundef 2, ptr noundef nonnull @.str.29, ptr noundef nonnull %.022) #12
  br label %48

48:                                               ; preds = %46, %47
  %49 = call ptr @strtok_r(ptr noundef null, ptr noundef nonnull @.str.28, ptr noundef nonnull %5) #12
  %.not = icmp eq ptr %49, null
  br i1 %.not, label %._crit_edge, label %.lr.ph.split.split

._crit_edge:                                      ; preds = %48, %31, %21, %.lr.ph.split.us.split.us, %4
  ret void
}